ARM GAS  C:\Users\monur\AppData\Local\Temp\ccW4krRp.s 			page 1


   1              		.cpu cortex-m4
   2              		.arch armv7e-m
   3              		.fpu fpv4-sp-d16
   4              		.eabi_attribute 27, 1
   5              		.eabi_attribute 28, 1
   6              		.eabi_attribute 20, 1
   7              		.eabi_attribute 21, 1
   8              		.eabi_attribute 23, 3
   9              		.eabi_attribute 24, 1
  10              		.eabi_attribute 25, 1
  11              		.eabi_attribute 26, 1
  12              		.eabi_attribute 30, 1
  13              		.eabi_attribute 34, 1
  14              		.eabi_attribute 18, 4
  15              		.file	"main.c"
  16              		.text
  17              	.Ltext0:
  18              		.cfi_sections	.debug_frame
  19              		.section	.text.MX_GPIO_Init,"ax",%progbits
  20              		.align	1
  21              		.syntax unified
  22              		.thumb
  23              		.thumb_func
  25              	MX_GPIO_Init:
  26              	.LFB132:
  27              		.file 1 "Core/Src/main.c"
   1:Core/Src/main.c **** /* USER CODE BEGIN Header */
   2:Core/Src/main.c **** /* ************************************************************************************************
   3:Core/Src/main.c ****  * ************************************************************************************************
   4:Core/Src/main.c ****  * Driver: Bare Metal (Low Layer/Register) / Standard Peripheral Library (SPL) / Hardware Abstracti
   5:Core/Src/main.c ****  * By Mustafa Onur Parlak
   6:Core/Src/main.c ****  * GitHub Link: https://github.com/legarthos
   7:Core/Src/main.c ****  * ************************************************************************************************
   8:Core/Src/main.c **** /* ************************************************************************************************
   9:Core/Src/main.c ****  * Project Purpose:
  10:Core/Src/main.c ****  * It contains the basic notes and contents I took while learning STM32 with LL-SPL-HAL DRIVER.
  11:Core/Src/main.c ****  * General Draft Code Style with Standard Peripheral Library
  12:Core/Src/main.c ****  *
  13:Core/Src/main.c ****  * ************************************************************************************************
  14:Core/Src/main.c ****  * Peripherals to be used:
  15:Core/Src/main.c ****  * GPIO (General Purpose Input Output)
  16:Core/Src/main.c ****  *
  17:Core/Src/main.c ****  * ************************************************************************************************
  18:Core/Src/main.c ****  * Update Time and Reason:
  19:Core/Src/main.c ****  * 2022.27.10 - Initialize
  20:Core/Src/main.c ****  *
  21:Core/Src/main.c ****  * ************************************************************************************************
  22:Core/Src/main.c **** /* USER CODE END Header */
  23:Core/Src/main.c **** /* Includes ------------------------------------------------------------------*/
  24:Core/Src/main.c **** #include "main.h"
  25:Core/Src/main.c **** 
  26:Core/Src/main.c **** /* Private includes ----------------------------------------------------------*/
  27:Core/Src/main.c **** /* USER CODE BEGIN Includes */
  28:Core/Src/main.c **** 
  29:Core/Src/main.c **** /* USER CODE END Includes */
  30:Core/Src/main.c **** 
  31:Core/Src/main.c **** /* Private typedef -----------------------------------------------------------*/
ARM GAS  C:\Users\monur\AppData\Local\Temp\ccW4krRp.s 			page 2


  32:Core/Src/main.c **** /* USER CODE BEGIN PTD */
  33:Core/Src/main.c **** 
  34:Core/Src/main.c **** /* USER CODE END PTD */
  35:Core/Src/main.c **** 
  36:Core/Src/main.c **** /* Private define ------------------------------------------------------------*/
  37:Core/Src/main.c **** /* USER CODE BEGIN PD */
  38:Core/Src/main.c **** /* USER CODE END PD */
  39:Core/Src/main.c **** 
  40:Core/Src/main.c **** /* Private macro -------------------------------------------------------------*/
  41:Core/Src/main.c **** /* USER CODE BEGIN PM */
  42:Core/Src/main.c **** 
  43:Core/Src/main.c **** /* USER CODE END PM */
  44:Core/Src/main.c **** 
  45:Core/Src/main.c **** /* Private variables ---------------------------------------------------------*/
  46:Core/Src/main.c **** 
  47:Core/Src/main.c **** /* USER CODE BEGIN PV */
  48:Core/Src/main.c **** 
  49:Core/Src/main.c **** /* USER CODE END PV */
  50:Core/Src/main.c **** 
  51:Core/Src/main.c **** /* Private function prototypes -----------------------------------------------*/
  52:Core/Src/main.c **** void SystemClock_Config(void);
  53:Core/Src/main.c **** static void MX_GPIO_Init(void);
  54:Core/Src/main.c **** /* USER CODE BEGIN PFP */
  55:Core/Src/main.c **** 
  56:Core/Src/main.c **** /* USER CODE END PFP */
  57:Core/Src/main.c **** 
  58:Core/Src/main.c **** /* Private user code ---------------------------------------------------------*/
  59:Core/Src/main.c **** /* USER CODE BEGIN 0 */
  60:Core/Src/main.c **** 
  61:Core/Src/main.c **** /* USER CODE END 0 */
  62:Core/Src/main.c **** 
  63:Core/Src/main.c **** /**
  64:Core/Src/main.c ****   * @brief  The application entry point.
  65:Core/Src/main.c ****   * @retval int
  66:Core/Src/main.c ****   */
  67:Core/Src/main.c **** int main(void)
  68:Core/Src/main.c **** {
  69:Core/Src/main.c ****   /* USER CODE BEGIN 1 */
  70:Core/Src/main.c **** 
  71:Core/Src/main.c ****   /* USER CODE END 1 */
  72:Core/Src/main.c **** 
  73:Core/Src/main.c ****   /* MCU Configuration--------------------------------------------------------*/
  74:Core/Src/main.c **** 
  75:Core/Src/main.c ****   /* Reset of all peripherals, Initializes the Flash interface and the Systick. */
  76:Core/Src/main.c ****   HAL_Init();
  77:Core/Src/main.c **** 
  78:Core/Src/main.c ****   /* USER CODE BEGIN Init */
  79:Core/Src/main.c **** 
  80:Core/Src/main.c ****   /* USER CODE END Init */
  81:Core/Src/main.c **** 
  82:Core/Src/main.c ****   /* Configure the system clock */
  83:Core/Src/main.c ****   SystemClock_Config();
  84:Core/Src/main.c **** 
  85:Core/Src/main.c ****   /* USER CODE BEGIN SysInit */
  86:Core/Src/main.c **** 
  87:Core/Src/main.c ****   /* USER CODE END SysInit */
  88:Core/Src/main.c **** 
ARM GAS  C:\Users\monur\AppData\Local\Temp\ccW4krRp.s 			page 3


  89:Core/Src/main.c ****   /* Initialize all configured peripherals */
  90:Core/Src/main.c ****   MX_GPIO_Init();
  91:Core/Src/main.c ****   /* USER CODE BEGIN 2 */
  92:Core/Src/main.c **** 
  93:Core/Src/main.c ****   /* USER CODE END 2 */
  94:Core/Src/main.c **** 
  95:Core/Src/main.c ****   /* Infinite loop */
  96:Core/Src/main.c ****   /* USER CODE BEGIN WHILE */
  97:Core/Src/main.c ****   while (1)
  98:Core/Src/main.c ****   {
  99:Core/Src/main.c ****     /* USER CODE END WHILE */
 100:Core/Src/main.c ****     
 101:Core/Src/main.c **** 	  HAL_GPIO_TogglePin(GPIOD, GPIO_PIN_12);
 102:Core/Src/main.c **** 	  HAL_Delay(100);
 103:Core/Src/main.c ****     /* USER CODE BEGIN 3 */
 104:Core/Src/main.c ****   }
 105:Core/Src/main.c ****   /* USER CODE END 3 */
 106:Core/Src/main.c **** }
 107:Core/Src/main.c **** 
 108:Core/Src/main.c **** /**
 109:Core/Src/main.c ****   * @brief System Clock Configuration
 110:Core/Src/main.c ****   * @retval None
 111:Core/Src/main.c ****   */
 112:Core/Src/main.c **** void SystemClock_Config(void)
 113:Core/Src/main.c **** {
 114:Core/Src/main.c ****   RCC_OscInitTypeDef RCC_OscInitStruct = {0};
 115:Core/Src/main.c ****   RCC_ClkInitTypeDef RCC_ClkInitStruct = {0};
 116:Core/Src/main.c **** 
 117:Core/Src/main.c ****   /** Configure the main internal regulator output voltage
 118:Core/Src/main.c ****   */
 119:Core/Src/main.c ****   __HAL_RCC_PWR_CLK_ENABLE();
 120:Core/Src/main.c ****   __HAL_PWR_VOLTAGESCALING_CONFIG(PWR_REGULATOR_VOLTAGE_SCALE1);
 121:Core/Src/main.c **** 
 122:Core/Src/main.c ****   /** Initializes the RCC Oscillators according to the specified parameters
 123:Core/Src/main.c ****   * in the RCC_OscInitTypeDef structure.
 124:Core/Src/main.c ****   */
 125:Core/Src/main.c ****   RCC_OscInitStruct.OscillatorType = RCC_OSCILLATORTYPE_HSE;
 126:Core/Src/main.c ****   RCC_OscInitStruct.HSEState = RCC_HSE_ON;
 127:Core/Src/main.c ****   RCC_OscInitStruct.PLL.PLLState = RCC_PLL_ON;
 128:Core/Src/main.c ****   RCC_OscInitStruct.PLL.PLLSource = RCC_PLLSOURCE_HSE;
 129:Core/Src/main.c ****   RCC_OscInitStruct.PLL.PLLM = 4;
 130:Core/Src/main.c ****   RCC_OscInitStruct.PLL.PLLN = 168;
 131:Core/Src/main.c ****   RCC_OscInitStruct.PLL.PLLP = RCC_PLLP_DIV2;
 132:Core/Src/main.c ****   RCC_OscInitStruct.PLL.PLLQ = 4;
 133:Core/Src/main.c ****   if (HAL_RCC_OscConfig(&RCC_OscInitStruct) != HAL_OK)
 134:Core/Src/main.c ****   {
 135:Core/Src/main.c ****     Error_Handler();
 136:Core/Src/main.c ****   }
 137:Core/Src/main.c **** 
 138:Core/Src/main.c ****   /** Initializes the CPU, AHB and APB buses clocks
 139:Core/Src/main.c ****   */
 140:Core/Src/main.c ****   RCC_ClkInitStruct.ClockType = RCC_CLOCKTYPE_HCLK|RCC_CLOCKTYPE_SYSCLK
 141:Core/Src/main.c ****                               |RCC_CLOCKTYPE_PCLK1|RCC_CLOCKTYPE_PCLK2;
 142:Core/Src/main.c ****   RCC_ClkInitStruct.SYSCLKSource = RCC_SYSCLKSOURCE_PLLCLK;
 143:Core/Src/main.c ****   RCC_ClkInitStruct.AHBCLKDivider = RCC_SYSCLK_DIV1;
 144:Core/Src/main.c ****   RCC_ClkInitStruct.APB1CLKDivider = RCC_HCLK_DIV4;
 145:Core/Src/main.c ****   RCC_ClkInitStruct.APB2CLKDivider = RCC_HCLK_DIV2;
ARM GAS  C:\Users\monur\AppData\Local\Temp\ccW4krRp.s 			page 4


 146:Core/Src/main.c **** 
 147:Core/Src/main.c ****   if (HAL_RCC_ClockConfig(&RCC_ClkInitStruct, FLASH_LATENCY_5) != HAL_OK)
 148:Core/Src/main.c ****   {
 149:Core/Src/main.c ****     Error_Handler();
 150:Core/Src/main.c ****   }
 151:Core/Src/main.c **** }
 152:Core/Src/main.c **** 
 153:Core/Src/main.c **** /**
 154:Core/Src/main.c ****   * @brief GPIO Initialization Function
 155:Core/Src/main.c ****   * @param None
 156:Core/Src/main.c ****   * @retval None
 157:Core/Src/main.c ****   */
 158:Core/Src/main.c **** static void MX_GPIO_Init(void)
 159:Core/Src/main.c **** {
  28              		.loc 1 159 1 view -0
  29              		.cfi_startproc
  30              		@ args = 0, pretend = 0, frame = 32
  31              		@ frame_needed = 0, uses_anonymous_args = 0
  32 0000 30B5     		push	{r4, r5, lr}
  33              	.LCFI0:
  34              		.cfi_def_cfa_offset 12
  35              		.cfi_offset 4, -12
  36              		.cfi_offset 5, -8
  37              		.cfi_offset 14, -4
  38 0002 89B0     		sub	sp, sp, #36
  39              	.LCFI1:
  40              		.cfi_def_cfa_offset 48
 160:Core/Src/main.c ****   GPIO_InitTypeDef GPIO_InitStruct = {0};
  41              		.loc 1 160 3 view .LVU1
  42              		.loc 1 160 20 is_stmt 0 view .LVU2
  43 0004 0024     		movs	r4, #0
  44 0006 0394     		str	r4, [sp, #12]
  45 0008 0494     		str	r4, [sp, #16]
  46 000a 0594     		str	r4, [sp, #20]
  47 000c 0694     		str	r4, [sp, #24]
  48 000e 0794     		str	r4, [sp, #28]
 161:Core/Src/main.c **** 
 162:Core/Src/main.c ****   /* GPIO Ports Clock Enable */
 163:Core/Src/main.c ****   __HAL_RCC_GPIOH_CLK_ENABLE();
  49              		.loc 1 163 3 is_stmt 1 view .LVU3
  50              	.LBB4:
  51              		.loc 1 163 3 view .LVU4
  52 0010 0094     		str	r4, [sp]
  53              		.loc 1 163 3 view .LVU5
  54 0012 194B     		ldr	r3, .L3
  55 0014 1A6B     		ldr	r2, [r3, #48]
  56 0016 42F08002 		orr	r2, r2, #128
  57 001a 1A63     		str	r2, [r3, #48]
  58              		.loc 1 163 3 view .LVU6
  59 001c 1A6B     		ldr	r2, [r3, #48]
  60 001e 02F08002 		and	r2, r2, #128
  61 0022 0092     		str	r2, [sp]
  62              		.loc 1 163 3 view .LVU7
  63 0024 009A     		ldr	r2, [sp]
  64              	.LBE4:
  65              		.loc 1 163 3 view .LVU8
 164:Core/Src/main.c ****   __HAL_RCC_GPIOD_CLK_ENABLE();
ARM GAS  C:\Users\monur\AppData\Local\Temp\ccW4krRp.s 			page 5


  66              		.loc 1 164 3 view .LVU9
  67              	.LBB5:
  68              		.loc 1 164 3 view .LVU10
  69 0026 0194     		str	r4, [sp, #4]
  70              		.loc 1 164 3 view .LVU11
  71 0028 1A6B     		ldr	r2, [r3, #48]
  72 002a 42F00802 		orr	r2, r2, #8
  73 002e 1A63     		str	r2, [r3, #48]
  74              		.loc 1 164 3 view .LVU12
  75 0030 1A6B     		ldr	r2, [r3, #48]
  76 0032 02F00802 		and	r2, r2, #8
  77 0036 0192     		str	r2, [sp, #4]
  78              		.loc 1 164 3 view .LVU13
  79 0038 019A     		ldr	r2, [sp, #4]
  80              	.LBE5:
  81              		.loc 1 164 3 view .LVU14
 165:Core/Src/main.c ****   __HAL_RCC_GPIOA_CLK_ENABLE();
  82              		.loc 1 165 3 view .LVU15
  83              	.LBB6:
  84              		.loc 1 165 3 view .LVU16
  85 003a 0294     		str	r4, [sp, #8]
  86              		.loc 1 165 3 view .LVU17
  87 003c 1A6B     		ldr	r2, [r3, #48]
  88 003e 42F00102 		orr	r2, r2, #1
  89 0042 1A63     		str	r2, [r3, #48]
  90              		.loc 1 165 3 view .LVU18
  91 0044 1B6B     		ldr	r3, [r3, #48]
  92 0046 03F00103 		and	r3, r3, #1
  93 004a 0293     		str	r3, [sp, #8]
  94              		.loc 1 165 3 view .LVU19
  95 004c 029B     		ldr	r3, [sp, #8]
  96              	.LBE6:
  97              		.loc 1 165 3 view .LVU20
 166:Core/Src/main.c **** 
 167:Core/Src/main.c ****   /*Configure GPIO pin Output Level */
 168:Core/Src/main.c ****   HAL_GPIO_WritePin(GPIOD, GPIO_PIN_12, GPIO_PIN_RESET);
  98              		.loc 1 168 3 view .LVU21
  99 004e 0B4D     		ldr	r5, .L3+4
 100 0050 2246     		mov	r2, r4
 101 0052 4FF48051 		mov	r1, #4096
 102 0056 2846     		mov	r0, r5
 103 0058 FFF7FEFF 		bl	HAL_GPIO_WritePin
 104              	.LVL0:
 169:Core/Src/main.c **** 
 170:Core/Src/main.c ****   /*Configure GPIO pin : PD12 */
 171:Core/Src/main.c ****   GPIO_InitStruct.Pin = GPIO_PIN_12;
 105              		.loc 1 171 3 view .LVU22
 106              		.loc 1 171 23 is_stmt 0 view .LVU23
 107 005c 4FF48053 		mov	r3, #4096
 108 0060 0393     		str	r3, [sp, #12]
 172:Core/Src/main.c ****   GPIO_InitStruct.Mode = GPIO_MODE_OUTPUT_PP;
 109              		.loc 1 172 3 is_stmt 1 view .LVU24
 110              		.loc 1 172 24 is_stmt 0 view .LVU25
 111 0062 0123     		movs	r3, #1
 112 0064 0493     		str	r3, [sp, #16]
 173:Core/Src/main.c ****   GPIO_InitStruct.Pull = GPIO_NOPULL;
 113              		.loc 1 173 3 is_stmt 1 view .LVU26
ARM GAS  C:\Users\monur\AppData\Local\Temp\ccW4krRp.s 			page 6


 114              		.loc 1 173 24 is_stmt 0 view .LVU27
 115 0066 0594     		str	r4, [sp, #20]
 174:Core/Src/main.c ****   GPIO_InitStruct.Speed = GPIO_SPEED_FREQ_LOW;
 116              		.loc 1 174 3 is_stmt 1 view .LVU28
 117              		.loc 1 174 25 is_stmt 0 view .LVU29
 118 0068 0694     		str	r4, [sp, #24]
 175:Core/Src/main.c ****   HAL_GPIO_Init(GPIOD, &GPIO_InitStruct);
 119              		.loc 1 175 3 is_stmt 1 view .LVU30
 120 006a 03A9     		add	r1, sp, #12
 121 006c 2846     		mov	r0, r5
 122 006e FFF7FEFF 		bl	HAL_GPIO_Init
 123              	.LVL1:
 176:Core/Src/main.c **** 
 177:Core/Src/main.c **** }
 124              		.loc 1 177 1 is_stmt 0 view .LVU31
 125 0072 09B0     		add	sp, sp, #36
 126              	.LCFI2:
 127              		.cfi_def_cfa_offset 12
 128              		@ sp needed
 129 0074 30BD     		pop	{r4, r5, pc}
 130              	.L4:
 131 0076 00BF     		.align	2
 132              	.L3:
 133 0078 00380240 		.word	1073887232
 134 007c 000C0240 		.word	1073875968
 135              		.cfi_endproc
 136              	.LFE132:
 138              		.section	.text.Error_Handler,"ax",%progbits
 139              		.align	1
 140              		.global	Error_Handler
 141              		.syntax unified
 142              		.thumb
 143              		.thumb_func
 145              	Error_Handler:
 146              	.LFB133:
 178:Core/Src/main.c **** 
 179:Core/Src/main.c **** /* USER CODE BEGIN 4 */
 180:Core/Src/main.c **** 
 181:Core/Src/main.c **** /* USER CODE END 4 */
 182:Core/Src/main.c **** 
 183:Core/Src/main.c **** /**
 184:Core/Src/main.c ****   * @brief  This function is executed in case of error occurrence.
 185:Core/Src/main.c ****   * @retval None
 186:Core/Src/main.c ****   */
 187:Core/Src/main.c **** void Error_Handler(void)
 188:Core/Src/main.c **** {
 147              		.loc 1 188 1 is_stmt 1 view -0
 148              		.cfi_startproc
 149              		@ Volatile: function does not return.
 150              		@ args = 0, pretend = 0, frame = 0
 151              		@ frame_needed = 0, uses_anonymous_args = 0
 152              		@ link register save eliminated.
 189:Core/Src/main.c ****   /* USER CODE BEGIN Error_Handler_Debug */
 190:Core/Src/main.c ****   /* User can add his own implementation to report the HAL error return state */
 191:Core/Src/main.c ****   __disable_irq();
 153              		.loc 1 191 3 view .LVU33
 154              	.LBB7:
ARM GAS  C:\Users\monur\AppData\Local\Temp\ccW4krRp.s 			page 7


 155              	.LBI7:
 156              		.file 2 "Drivers/CMSIS/Include/cmsis_gcc.h"
   1:Drivers/CMSIS/Include/cmsis_gcc.h **** /**************************************************************************//**
   2:Drivers/CMSIS/Include/cmsis_gcc.h ****  * @file     cmsis_gcc.h
   3:Drivers/CMSIS/Include/cmsis_gcc.h ****  * @brief    CMSIS compiler GCC header file
   4:Drivers/CMSIS/Include/cmsis_gcc.h ****  * @version  V5.0.4
   5:Drivers/CMSIS/Include/cmsis_gcc.h ****  * @date     09. April 2018
   6:Drivers/CMSIS/Include/cmsis_gcc.h ****  ******************************************************************************/
   7:Drivers/CMSIS/Include/cmsis_gcc.h **** /*
   8:Drivers/CMSIS/Include/cmsis_gcc.h ****  * Copyright (c) 2009-2018 Arm Limited. All rights reserved.
   9:Drivers/CMSIS/Include/cmsis_gcc.h ****  *
  10:Drivers/CMSIS/Include/cmsis_gcc.h ****  * SPDX-License-Identifier: Apache-2.0
  11:Drivers/CMSIS/Include/cmsis_gcc.h ****  *
  12:Drivers/CMSIS/Include/cmsis_gcc.h ****  * Licensed under the Apache License, Version 2.0 (the License); you may
  13:Drivers/CMSIS/Include/cmsis_gcc.h ****  * not use this file except in compliance with the License.
  14:Drivers/CMSIS/Include/cmsis_gcc.h ****  * You may obtain a copy of the License at
  15:Drivers/CMSIS/Include/cmsis_gcc.h ****  *
  16:Drivers/CMSIS/Include/cmsis_gcc.h ****  * www.apache.org/licenses/LICENSE-2.0
  17:Drivers/CMSIS/Include/cmsis_gcc.h ****  *
  18:Drivers/CMSIS/Include/cmsis_gcc.h ****  * Unless required by applicable law or agreed to in writing, software
  19:Drivers/CMSIS/Include/cmsis_gcc.h ****  * distributed under the License is distributed on an AS IS BASIS, WITHOUT
  20:Drivers/CMSIS/Include/cmsis_gcc.h ****  * WARRANTIES OR CONDITIONS OF ANY KIND, either express or implied.
  21:Drivers/CMSIS/Include/cmsis_gcc.h ****  * See the License for the specific language governing permissions and
  22:Drivers/CMSIS/Include/cmsis_gcc.h ****  * limitations under the License.
  23:Drivers/CMSIS/Include/cmsis_gcc.h ****  */
  24:Drivers/CMSIS/Include/cmsis_gcc.h **** 
  25:Drivers/CMSIS/Include/cmsis_gcc.h **** #ifndef __CMSIS_GCC_H
  26:Drivers/CMSIS/Include/cmsis_gcc.h **** #define __CMSIS_GCC_H
  27:Drivers/CMSIS/Include/cmsis_gcc.h **** 
  28:Drivers/CMSIS/Include/cmsis_gcc.h **** /* ignore some GCC warnings */
  29:Drivers/CMSIS/Include/cmsis_gcc.h **** #pragma GCC diagnostic push
  30:Drivers/CMSIS/Include/cmsis_gcc.h **** #pragma GCC diagnostic ignored "-Wsign-conversion"
  31:Drivers/CMSIS/Include/cmsis_gcc.h **** #pragma GCC diagnostic ignored "-Wconversion"
  32:Drivers/CMSIS/Include/cmsis_gcc.h **** #pragma GCC diagnostic ignored "-Wunused-parameter"
  33:Drivers/CMSIS/Include/cmsis_gcc.h **** 
  34:Drivers/CMSIS/Include/cmsis_gcc.h **** /* Fallback for __has_builtin */
  35:Drivers/CMSIS/Include/cmsis_gcc.h **** #ifndef __has_builtin
  36:Drivers/CMSIS/Include/cmsis_gcc.h ****   #define __has_builtin(x) (0)
  37:Drivers/CMSIS/Include/cmsis_gcc.h **** #endif
  38:Drivers/CMSIS/Include/cmsis_gcc.h **** 
  39:Drivers/CMSIS/Include/cmsis_gcc.h **** /* CMSIS compiler specific defines */
  40:Drivers/CMSIS/Include/cmsis_gcc.h **** #ifndef   __ASM
  41:Drivers/CMSIS/Include/cmsis_gcc.h ****   #define __ASM                                  __asm
  42:Drivers/CMSIS/Include/cmsis_gcc.h **** #endif
  43:Drivers/CMSIS/Include/cmsis_gcc.h **** #ifndef   __INLINE
  44:Drivers/CMSIS/Include/cmsis_gcc.h ****   #define __INLINE                               inline
  45:Drivers/CMSIS/Include/cmsis_gcc.h **** #endif
  46:Drivers/CMSIS/Include/cmsis_gcc.h **** #ifndef   __STATIC_INLINE
  47:Drivers/CMSIS/Include/cmsis_gcc.h ****   #define __STATIC_INLINE                        static inline
  48:Drivers/CMSIS/Include/cmsis_gcc.h **** #endif
  49:Drivers/CMSIS/Include/cmsis_gcc.h **** #ifndef   __STATIC_FORCEINLINE                 
  50:Drivers/CMSIS/Include/cmsis_gcc.h ****   #define __STATIC_FORCEINLINE                   __attribute__((always_inline)) static inline
  51:Drivers/CMSIS/Include/cmsis_gcc.h **** #endif                                           
  52:Drivers/CMSIS/Include/cmsis_gcc.h **** #ifndef   __NO_RETURN
  53:Drivers/CMSIS/Include/cmsis_gcc.h ****   #define __NO_RETURN                            __attribute__((__noreturn__))
  54:Drivers/CMSIS/Include/cmsis_gcc.h **** #endif
  55:Drivers/CMSIS/Include/cmsis_gcc.h **** #ifndef   __USED
ARM GAS  C:\Users\monur\AppData\Local\Temp\ccW4krRp.s 			page 8


  56:Drivers/CMSIS/Include/cmsis_gcc.h ****   #define __USED                                 __attribute__((used))
  57:Drivers/CMSIS/Include/cmsis_gcc.h **** #endif
  58:Drivers/CMSIS/Include/cmsis_gcc.h **** #ifndef   __WEAK
  59:Drivers/CMSIS/Include/cmsis_gcc.h ****   #define __WEAK                                 __attribute__((weak))
  60:Drivers/CMSIS/Include/cmsis_gcc.h **** #endif
  61:Drivers/CMSIS/Include/cmsis_gcc.h **** #ifndef   __PACKED
  62:Drivers/CMSIS/Include/cmsis_gcc.h ****   #define __PACKED                               __attribute__((packed, aligned(1)))
  63:Drivers/CMSIS/Include/cmsis_gcc.h **** #endif
  64:Drivers/CMSIS/Include/cmsis_gcc.h **** #ifndef   __PACKED_STRUCT
  65:Drivers/CMSIS/Include/cmsis_gcc.h ****   #define __PACKED_STRUCT                        struct __attribute__((packed, aligned(1)))
  66:Drivers/CMSIS/Include/cmsis_gcc.h **** #endif
  67:Drivers/CMSIS/Include/cmsis_gcc.h **** #ifndef   __PACKED_UNION
  68:Drivers/CMSIS/Include/cmsis_gcc.h ****   #define __PACKED_UNION                         union __attribute__((packed, aligned(1)))
  69:Drivers/CMSIS/Include/cmsis_gcc.h **** #endif
  70:Drivers/CMSIS/Include/cmsis_gcc.h **** #ifndef   __UNALIGNED_UINT32        /* deprecated */
  71:Drivers/CMSIS/Include/cmsis_gcc.h ****   #pragma GCC diagnostic push
  72:Drivers/CMSIS/Include/cmsis_gcc.h ****   #pragma GCC diagnostic ignored "-Wpacked"
  73:Drivers/CMSIS/Include/cmsis_gcc.h ****   #pragma GCC diagnostic ignored "-Wattributes"
  74:Drivers/CMSIS/Include/cmsis_gcc.h ****   struct __attribute__((packed)) T_UINT32 { uint32_t v; };
  75:Drivers/CMSIS/Include/cmsis_gcc.h ****   #pragma GCC diagnostic pop
  76:Drivers/CMSIS/Include/cmsis_gcc.h ****   #define __UNALIGNED_UINT32(x)                  (((struct T_UINT32 *)(x))->v)
  77:Drivers/CMSIS/Include/cmsis_gcc.h **** #endif
  78:Drivers/CMSIS/Include/cmsis_gcc.h **** #ifndef   __UNALIGNED_UINT16_WRITE
  79:Drivers/CMSIS/Include/cmsis_gcc.h ****   #pragma GCC diagnostic push
  80:Drivers/CMSIS/Include/cmsis_gcc.h ****   #pragma GCC diagnostic ignored "-Wpacked"
  81:Drivers/CMSIS/Include/cmsis_gcc.h ****   #pragma GCC diagnostic ignored "-Wattributes"
  82:Drivers/CMSIS/Include/cmsis_gcc.h ****   __PACKED_STRUCT T_UINT16_WRITE { uint16_t v; };
  83:Drivers/CMSIS/Include/cmsis_gcc.h ****   #pragma GCC diagnostic pop
  84:Drivers/CMSIS/Include/cmsis_gcc.h ****   #define __UNALIGNED_UINT16_WRITE(addr, val)    (void)((((struct T_UINT16_WRITE *)(void *)(addr))-
  85:Drivers/CMSIS/Include/cmsis_gcc.h **** #endif
  86:Drivers/CMSIS/Include/cmsis_gcc.h **** #ifndef   __UNALIGNED_UINT16_READ
  87:Drivers/CMSIS/Include/cmsis_gcc.h ****   #pragma GCC diagnostic push
  88:Drivers/CMSIS/Include/cmsis_gcc.h ****   #pragma GCC diagnostic ignored "-Wpacked"
  89:Drivers/CMSIS/Include/cmsis_gcc.h ****   #pragma GCC diagnostic ignored "-Wattributes"
  90:Drivers/CMSIS/Include/cmsis_gcc.h ****   __PACKED_STRUCT T_UINT16_READ { uint16_t v; };
  91:Drivers/CMSIS/Include/cmsis_gcc.h ****   #pragma GCC diagnostic pop
  92:Drivers/CMSIS/Include/cmsis_gcc.h ****   #define __UNALIGNED_UINT16_READ(addr)          (((const struct T_UINT16_READ *)(const void *)(add
  93:Drivers/CMSIS/Include/cmsis_gcc.h **** #endif
  94:Drivers/CMSIS/Include/cmsis_gcc.h **** #ifndef   __UNALIGNED_UINT32_WRITE
  95:Drivers/CMSIS/Include/cmsis_gcc.h ****   #pragma GCC diagnostic push
  96:Drivers/CMSIS/Include/cmsis_gcc.h ****   #pragma GCC diagnostic ignored "-Wpacked"
  97:Drivers/CMSIS/Include/cmsis_gcc.h ****   #pragma GCC diagnostic ignored "-Wattributes"
  98:Drivers/CMSIS/Include/cmsis_gcc.h ****   __PACKED_STRUCT T_UINT32_WRITE { uint32_t v; };
  99:Drivers/CMSIS/Include/cmsis_gcc.h ****   #pragma GCC diagnostic pop
 100:Drivers/CMSIS/Include/cmsis_gcc.h ****   #define __UNALIGNED_UINT32_WRITE(addr, val)    (void)((((struct T_UINT32_WRITE *)(void *)(addr))-
 101:Drivers/CMSIS/Include/cmsis_gcc.h **** #endif
 102:Drivers/CMSIS/Include/cmsis_gcc.h **** #ifndef   __UNALIGNED_UINT32_READ
 103:Drivers/CMSIS/Include/cmsis_gcc.h ****   #pragma GCC diagnostic push
 104:Drivers/CMSIS/Include/cmsis_gcc.h ****   #pragma GCC diagnostic ignored "-Wpacked"
 105:Drivers/CMSIS/Include/cmsis_gcc.h ****   #pragma GCC diagnostic ignored "-Wattributes"
 106:Drivers/CMSIS/Include/cmsis_gcc.h ****   __PACKED_STRUCT T_UINT32_READ { uint32_t v; };
 107:Drivers/CMSIS/Include/cmsis_gcc.h ****   #pragma GCC diagnostic pop
 108:Drivers/CMSIS/Include/cmsis_gcc.h ****   #define __UNALIGNED_UINT32_READ(addr)          (((const struct T_UINT32_READ *)(const void *)(add
 109:Drivers/CMSIS/Include/cmsis_gcc.h **** #endif
 110:Drivers/CMSIS/Include/cmsis_gcc.h **** #ifndef   __ALIGNED
 111:Drivers/CMSIS/Include/cmsis_gcc.h ****   #define __ALIGNED(x)                           __attribute__((aligned(x)))
 112:Drivers/CMSIS/Include/cmsis_gcc.h **** #endif
ARM GAS  C:\Users\monur\AppData\Local\Temp\ccW4krRp.s 			page 9


 113:Drivers/CMSIS/Include/cmsis_gcc.h **** #ifndef   __RESTRICT
 114:Drivers/CMSIS/Include/cmsis_gcc.h ****   #define __RESTRICT                             __restrict
 115:Drivers/CMSIS/Include/cmsis_gcc.h **** #endif
 116:Drivers/CMSIS/Include/cmsis_gcc.h **** 
 117:Drivers/CMSIS/Include/cmsis_gcc.h **** 
 118:Drivers/CMSIS/Include/cmsis_gcc.h **** /* ###########################  Core Function Access  ########################### */
 119:Drivers/CMSIS/Include/cmsis_gcc.h **** /** \ingroup  CMSIS_Core_FunctionInterface
 120:Drivers/CMSIS/Include/cmsis_gcc.h ****     \defgroup CMSIS_Core_RegAccFunctions CMSIS Core Register Access Functions
 121:Drivers/CMSIS/Include/cmsis_gcc.h ****   @{
 122:Drivers/CMSIS/Include/cmsis_gcc.h ****  */
 123:Drivers/CMSIS/Include/cmsis_gcc.h **** 
 124:Drivers/CMSIS/Include/cmsis_gcc.h **** /**
 125:Drivers/CMSIS/Include/cmsis_gcc.h ****   \brief   Enable IRQ Interrupts
 126:Drivers/CMSIS/Include/cmsis_gcc.h ****   \details Enables IRQ interrupts by clearing the I-bit in the CPSR.
 127:Drivers/CMSIS/Include/cmsis_gcc.h ****            Can only be executed in Privileged modes.
 128:Drivers/CMSIS/Include/cmsis_gcc.h ****  */
 129:Drivers/CMSIS/Include/cmsis_gcc.h **** __STATIC_FORCEINLINE void __enable_irq(void)
 130:Drivers/CMSIS/Include/cmsis_gcc.h **** {
 131:Drivers/CMSIS/Include/cmsis_gcc.h ****   __ASM volatile ("cpsie i" : : : "memory");
 132:Drivers/CMSIS/Include/cmsis_gcc.h **** }
 133:Drivers/CMSIS/Include/cmsis_gcc.h **** 
 134:Drivers/CMSIS/Include/cmsis_gcc.h **** 
 135:Drivers/CMSIS/Include/cmsis_gcc.h **** /**
 136:Drivers/CMSIS/Include/cmsis_gcc.h ****   \brief   Disable IRQ Interrupts
 137:Drivers/CMSIS/Include/cmsis_gcc.h ****   \details Disables IRQ interrupts by setting the I-bit in the CPSR.
 138:Drivers/CMSIS/Include/cmsis_gcc.h ****            Can only be executed in Privileged modes.
 139:Drivers/CMSIS/Include/cmsis_gcc.h ****  */
 140:Drivers/CMSIS/Include/cmsis_gcc.h **** __STATIC_FORCEINLINE void __disable_irq(void)
 157              		.loc 2 140 27 view .LVU34
 158              	.LBB8:
 141:Drivers/CMSIS/Include/cmsis_gcc.h **** {
 142:Drivers/CMSIS/Include/cmsis_gcc.h ****   __ASM volatile ("cpsid i" : : : "memory");
 159              		.loc 2 142 3 view .LVU35
 160              		.syntax unified
 161              	@ 142 "Drivers/CMSIS/Include/cmsis_gcc.h" 1
 162 0000 72B6     		cpsid i
 163              	@ 0 "" 2
 164              		.thumb
 165              		.syntax unified
 166              	.L6:
 167              	.LBE8:
 168              	.LBE7:
 192:Core/Src/main.c ****   while (1)
 169              		.loc 1 192 3 discriminator 1 view .LVU36
 193:Core/Src/main.c ****   {
 194:Core/Src/main.c ****   }
 170              		.loc 1 194 3 discriminator 1 view .LVU37
 192:Core/Src/main.c ****   while (1)
 171              		.loc 1 192 9 discriminator 1 view .LVU38
 172 0002 FEE7     		b	.L6
 173              		.cfi_endproc
 174              	.LFE133:
 176              		.section	.text.SystemClock_Config,"ax",%progbits
 177              		.align	1
 178              		.global	SystemClock_Config
 179              		.syntax unified
 180              		.thumb
ARM GAS  C:\Users\monur\AppData\Local\Temp\ccW4krRp.s 			page 10


 181              		.thumb_func
 183              	SystemClock_Config:
 184              	.LFB131:
 113:Core/Src/main.c ****   RCC_OscInitTypeDef RCC_OscInitStruct = {0};
 185              		.loc 1 113 1 view -0
 186              		.cfi_startproc
 187              		@ args = 0, pretend = 0, frame = 80
 188              		@ frame_needed = 0, uses_anonymous_args = 0
 189 0000 00B5     		push	{lr}
 190              	.LCFI3:
 191              		.cfi_def_cfa_offset 4
 192              		.cfi_offset 14, -4
 193 0002 95B0     		sub	sp, sp, #84
 194              	.LCFI4:
 195              		.cfi_def_cfa_offset 88
 114:Core/Src/main.c ****   RCC_ClkInitTypeDef RCC_ClkInitStruct = {0};
 196              		.loc 1 114 3 view .LVU40
 114:Core/Src/main.c ****   RCC_ClkInitTypeDef RCC_ClkInitStruct = {0};
 197              		.loc 1 114 22 is_stmt 0 view .LVU41
 198 0004 3022     		movs	r2, #48
 199 0006 0021     		movs	r1, #0
 200 0008 08A8     		add	r0, sp, #32
 201 000a FFF7FEFF 		bl	memset
 202              	.LVL2:
 115:Core/Src/main.c **** 
 203              		.loc 1 115 3 is_stmt 1 view .LVU42
 115:Core/Src/main.c **** 
 204              		.loc 1 115 22 is_stmt 0 view .LVU43
 205 000e 0023     		movs	r3, #0
 206 0010 0393     		str	r3, [sp, #12]
 207 0012 0493     		str	r3, [sp, #16]
 208 0014 0593     		str	r3, [sp, #20]
 209 0016 0693     		str	r3, [sp, #24]
 210 0018 0793     		str	r3, [sp, #28]
 119:Core/Src/main.c ****   __HAL_PWR_VOLTAGESCALING_CONFIG(PWR_REGULATOR_VOLTAGE_SCALE1);
 211              		.loc 1 119 3 is_stmt 1 view .LVU44
 212              	.LBB9:
 119:Core/Src/main.c ****   __HAL_PWR_VOLTAGESCALING_CONFIG(PWR_REGULATOR_VOLTAGE_SCALE1);
 213              		.loc 1 119 3 view .LVU45
 214 001a 0193     		str	r3, [sp, #4]
 119:Core/Src/main.c ****   __HAL_PWR_VOLTAGESCALING_CONFIG(PWR_REGULATOR_VOLTAGE_SCALE1);
 215              		.loc 1 119 3 view .LVU46
 216 001c 204A     		ldr	r2, .L13
 217 001e 116C     		ldr	r1, [r2, #64]
 218 0020 41F08051 		orr	r1, r1, #268435456
 219 0024 1164     		str	r1, [r2, #64]
 119:Core/Src/main.c ****   __HAL_PWR_VOLTAGESCALING_CONFIG(PWR_REGULATOR_VOLTAGE_SCALE1);
 220              		.loc 1 119 3 view .LVU47
 221 0026 126C     		ldr	r2, [r2, #64]
 222 0028 02F08052 		and	r2, r2, #268435456
 223 002c 0192     		str	r2, [sp, #4]
 119:Core/Src/main.c ****   __HAL_PWR_VOLTAGESCALING_CONFIG(PWR_REGULATOR_VOLTAGE_SCALE1);
 224              		.loc 1 119 3 view .LVU48
 225 002e 019A     		ldr	r2, [sp, #4]
 226              	.LBE9:
 119:Core/Src/main.c ****   __HAL_PWR_VOLTAGESCALING_CONFIG(PWR_REGULATOR_VOLTAGE_SCALE1);
 227              		.loc 1 119 3 view .LVU49
ARM GAS  C:\Users\monur\AppData\Local\Temp\ccW4krRp.s 			page 11


 120:Core/Src/main.c **** 
 228              		.loc 1 120 3 view .LVU50
 229              	.LBB10:
 120:Core/Src/main.c **** 
 230              		.loc 1 120 3 view .LVU51
 231 0030 0293     		str	r3, [sp, #8]
 120:Core/Src/main.c **** 
 232              		.loc 1 120 3 view .LVU52
 233 0032 1C4B     		ldr	r3, .L13+4
 234 0034 1A68     		ldr	r2, [r3]
 235 0036 42F48042 		orr	r2, r2, #16384
 236 003a 1A60     		str	r2, [r3]
 120:Core/Src/main.c **** 
 237              		.loc 1 120 3 view .LVU53
 238 003c 1B68     		ldr	r3, [r3]
 239 003e 03F48043 		and	r3, r3, #16384
 240 0042 0293     		str	r3, [sp, #8]
 120:Core/Src/main.c **** 
 241              		.loc 1 120 3 view .LVU54
 242 0044 029B     		ldr	r3, [sp, #8]
 243              	.LBE10:
 120:Core/Src/main.c **** 
 244              		.loc 1 120 3 view .LVU55
 125:Core/Src/main.c ****   RCC_OscInitStruct.HSEState = RCC_HSE_ON;
 245              		.loc 1 125 3 view .LVU56
 125:Core/Src/main.c ****   RCC_OscInitStruct.HSEState = RCC_HSE_ON;
 246              		.loc 1 125 36 is_stmt 0 view .LVU57
 247 0046 0123     		movs	r3, #1
 248 0048 0893     		str	r3, [sp, #32]
 126:Core/Src/main.c ****   RCC_OscInitStruct.PLL.PLLState = RCC_PLL_ON;
 249              		.loc 1 126 3 is_stmt 1 view .LVU58
 126:Core/Src/main.c ****   RCC_OscInitStruct.PLL.PLLState = RCC_PLL_ON;
 250              		.loc 1 126 30 is_stmt 0 view .LVU59
 251 004a 4FF48033 		mov	r3, #65536
 252 004e 0993     		str	r3, [sp, #36]
 127:Core/Src/main.c ****   RCC_OscInitStruct.PLL.PLLSource = RCC_PLLSOURCE_HSE;
 253              		.loc 1 127 3 is_stmt 1 view .LVU60
 127:Core/Src/main.c ****   RCC_OscInitStruct.PLL.PLLSource = RCC_PLLSOURCE_HSE;
 254              		.loc 1 127 34 is_stmt 0 view .LVU61
 255 0050 0222     		movs	r2, #2
 256 0052 0E92     		str	r2, [sp, #56]
 128:Core/Src/main.c ****   RCC_OscInitStruct.PLL.PLLM = 4;
 257              		.loc 1 128 3 is_stmt 1 view .LVU62
 128:Core/Src/main.c ****   RCC_OscInitStruct.PLL.PLLM = 4;
 258              		.loc 1 128 35 is_stmt 0 view .LVU63
 259 0054 4FF48003 		mov	r3, #4194304
 260 0058 0F93     		str	r3, [sp, #60]
 129:Core/Src/main.c ****   RCC_OscInitStruct.PLL.PLLN = 168;
 261              		.loc 1 129 3 is_stmt 1 view .LVU64
 129:Core/Src/main.c ****   RCC_OscInitStruct.PLL.PLLN = 168;
 262              		.loc 1 129 30 is_stmt 0 view .LVU65
 263 005a 0423     		movs	r3, #4
 264 005c 1093     		str	r3, [sp, #64]
 130:Core/Src/main.c ****   RCC_OscInitStruct.PLL.PLLP = RCC_PLLP_DIV2;
 265              		.loc 1 130 3 is_stmt 1 view .LVU66
 130:Core/Src/main.c ****   RCC_OscInitStruct.PLL.PLLP = RCC_PLLP_DIV2;
 266              		.loc 1 130 30 is_stmt 0 view .LVU67
ARM GAS  C:\Users\monur\AppData\Local\Temp\ccW4krRp.s 			page 12


 267 005e A821     		movs	r1, #168
 268 0060 1191     		str	r1, [sp, #68]
 131:Core/Src/main.c ****   RCC_OscInitStruct.PLL.PLLQ = 4;
 269              		.loc 1 131 3 is_stmt 1 view .LVU68
 131:Core/Src/main.c ****   RCC_OscInitStruct.PLL.PLLQ = 4;
 270              		.loc 1 131 30 is_stmt 0 view .LVU69
 271 0062 1292     		str	r2, [sp, #72]
 132:Core/Src/main.c ****   if (HAL_RCC_OscConfig(&RCC_OscInitStruct) != HAL_OK)
 272              		.loc 1 132 3 is_stmt 1 view .LVU70
 132:Core/Src/main.c ****   if (HAL_RCC_OscConfig(&RCC_OscInitStruct) != HAL_OK)
 273              		.loc 1 132 30 is_stmt 0 view .LVU71
 274 0064 1393     		str	r3, [sp, #76]
 133:Core/Src/main.c ****   {
 275              		.loc 1 133 3 is_stmt 1 view .LVU72
 133:Core/Src/main.c ****   {
 276              		.loc 1 133 7 is_stmt 0 view .LVU73
 277 0066 08A8     		add	r0, sp, #32
 278 0068 FFF7FEFF 		bl	HAL_RCC_OscConfig
 279              	.LVL3:
 133:Core/Src/main.c ****   {
 280              		.loc 1 133 6 view .LVU74
 281 006c 98B9     		cbnz	r0, .L11
 140:Core/Src/main.c ****                               |RCC_CLOCKTYPE_PCLK1|RCC_CLOCKTYPE_PCLK2;
 282              		.loc 1 140 3 is_stmt 1 view .LVU75
 140:Core/Src/main.c ****                               |RCC_CLOCKTYPE_PCLK1|RCC_CLOCKTYPE_PCLK2;
 283              		.loc 1 140 31 is_stmt 0 view .LVU76
 284 006e 0F23     		movs	r3, #15
 285 0070 0393     		str	r3, [sp, #12]
 142:Core/Src/main.c ****   RCC_ClkInitStruct.AHBCLKDivider = RCC_SYSCLK_DIV1;
 286              		.loc 1 142 3 is_stmt 1 view .LVU77
 142:Core/Src/main.c ****   RCC_ClkInitStruct.AHBCLKDivider = RCC_SYSCLK_DIV1;
 287              		.loc 1 142 34 is_stmt 0 view .LVU78
 288 0072 0223     		movs	r3, #2
 289 0074 0493     		str	r3, [sp, #16]
 143:Core/Src/main.c ****   RCC_ClkInitStruct.APB1CLKDivider = RCC_HCLK_DIV4;
 290              		.loc 1 143 3 is_stmt 1 view .LVU79
 143:Core/Src/main.c ****   RCC_ClkInitStruct.APB1CLKDivider = RCC_HCLK_DIV4;
 291              		.loc 1 143 35 is_stmt 0 view .LVU80
 292 0076 0023     		movs	r3, #0
 293 0078 0593     		str	r3, [sp, #20]
 144:Core/Src/main.c ****   RCC_ClkInitStruct.APB2CLKDivider = RCC_HCLK_DIV2;
 294              		.loc 1 144 3 is_stmt 1 view .LVU81
 144:Core/Src/main.c ****   RCC_ClkInitStruct.APB2CLKDivider = RCC_HCLK_DIV2;
 295              		.loc 1 144 36 is_stmt 0 view .LVU82
 296 007a 4FF4A053 		mov	r3, #5120
 297 007e 0693     		str	r3, [sp, #24]
 145:Core/Src/main.c **** 
 298              		.loc 1 145 3 is_stmt 1 view .LVU83
 145:Core/Src/main.c **** 
 299              		.loc 1 145 36 is_stmt 0 view .LVU84
 300 0080 4FF48053 		mov	r3, #4096
 301 0084 0793     		str	r3, [sp, #28]
 147:Core/Src/main.c ****   {
 302              		.loc 1 147 3 is_stmt 1 view .LVU85
 147:Core/Src/main.c ****   {
 303              		.loc 1 147 7 is_stmt 0 view .LVU86
 304 0086 0521     		movs	r1, #5
ARM GAS  C:\Users\monur\AppData\Local\Temp\ccW4krRp.s 			page 13


 305 0088 03A8     		add	r0, sp, #12
 306 008a FFF7FEFF 		bl	HAL_RCC_ClockConfig
 307              	.LVL4:
 147:Core/Src/main.c ****   {
 308              		.loc 1 147 6 view .LVU87
 309 008e 20B9     		cbnz	r0, .L12
 151:Core/Src/main.c **** 
 310              		.loc 1 151 1 view .LVU88
 311 0090 15B0     		add	sp, sp, #84
 312              	.LCFI5:
 313              		.cfi_remember_state
 314              		.cfi_def_cfa_offset 4
 315              		@ sp needed
 316 0092 5DF804FB 		ldr	pc, [sp], #4
 317              	.L11:
 318              	.LCFI6:
 319              		.cfi_restore_state
 135:Core/Src/main.c ****   }
 320              		.loc 1 135 5 is_stmt 1 view .LVU89
 321 0096 FFF7FEFF 		bl	Error_Handler
 322              	.LVL5:
 323              	.L12:
 149:Core/Src/main.c ****   }
 324              		.loc 1 149 5 view .LVU90
 325 009a FFF7FEFF 		bl	Error_Handler
 326              	.LVL6:
 327              	.L14:
 328 009e 00BF     		.align	2
 329              	.L13:
 330 00a0 00380240 		.word	1073887232
 331 00a4 00700040 		.word	1073770496
 332              		.cfi_endproc
 333              	.LFE131:
 335              		.section	.text.main,"ax",%progbits
 336              		.align	1
 337              		.global	main
 338              		.syntax unified
 339              		.thumb
 340              		.thumb_func
 342              	main:
 343              	.LFB130:
  68:Core/Src/main.c ****   /* USER CODE BEGIN 1 */
 344              		.loc 1 68 1 view -0
 345              		.cfi_startproc
 346              		@ Volatile: function does not return.
 347              		@ args = 0, pretend = 0, frame = 0
 348              		@ frame_needed = 0, uses_anonymous_args = 0
 349 0000 08B5     		push	{r3, lr}
 350              	.LCFI7:
 351              		.cfi_def_cfa_offset 8
 352              		.cfi_offset 3, -8
 353              		.cfi_offset 14, -4
  76:Core/Src/main.c **** 
 354              		.loc 1 76 3 view .LVU92
 355 0002 FFF7FEFF 		bl	HAL_Init
 356              	.LVL7:
  83:Core/Src/main.c **** 
ARM GAS  C:\Users\monur\AppData\Local\Temp\ccW4krRp.s 			page 14


 357              		.loc 1 83 3 view .LVU93
 358 0006 FFF7FEFF 		bl	SystemClock_Config
 359              	.LVL8:
  90:Core/Src/main.c ****   /* USER CODE BEGIN 2 */
 360              		.loc 1 90 3 view .LVU94
 361 000a FFF7FEFF 		bl	MX_GPIO_Init
 362              	.LVL9:
 363              	.L16:
  97:Core/Src/main.c ****   {
 364              		.loc 1 97 3 discriminator 1 view .LVU95
 101:Core/Src/main.c **** 	  HAL_Delay(100);
 365              		.loc 1 101 4 discriminator 1 view .LVU96
 366 000e 4FF48051 		mov	r1, #4096
 367 0012 0348     		ldr	r0, .L18
 368 0014 FFF7FEFF 		bl	HAL_GPIO_TogglePin
 369              	.LVL10:
 102:Core/Src/main.c ****     /* USER CODE BEGIN 3 */
 370              		.loc 1 102 4 discriminator 1 view .LVU97
 371 0018 6420     		movs	r0, #100
 372 001a FFF7FEFF 		bl	HAL_Delay
 373              	.LVL11:
  97:Core/Src/main.c ****   {
 374              		.loc 1 97 9 discriminator 1 view .LVU98
 375 001e F6E7     		b	.L16
 376              	.L19:
 377              		.align	2
 378              	.L18:
 379 0020 000C0240 		.word	1073875968
 380              		.cfi_endproc
 381              	.LFE130:
 383              		.text
 384              	.Letext0:
 385              		.file 3 "c:\\program files (x86)\\gnu arm embedded toolchain\\10 2021.10\\arm-none-eabi\\include\\
 386              		.file 4 "c:\\program files (x86)\\gnu arm embedded toolchain\\10 2021.10\\arm-none-eabi\\include\\
 387              		.file 5 "Drivers/CMSIS/Device/ST/STM32F4xx/Include/stm32f407xx.h"
 388              		.file 6 "Drivers/STM32F4xx_HAL_Driver/Inc/stm32f4xx_hal_rcc_ex.h"
 389              		.file 7 "Drivers/STM32F4xx_HAL_Driver/Inc/stm32f4xx_hal_rcc.h"
 390              		.file 8 "Drivers/STM32F4xx_HAL_Driver/Inc/stm32f4xx_hal_gpio.h"
 391              		.file 9 "Drivers/STM32F4xx_HAL_Driver/Inc/stm32f4xx_hal_def.h"
 392              		.file 10 "Drivers/STM32F4xx_HAL_Driver/Inc/stm32f4xx_hal.h"
 393              		.file 11 "<built-in>"
ARM GAS  C:\Users\monur\AppData\Local\Temp\ccW4krRp.s 			page 15

